libstxxl.so.0 libstxxl #MINVER#
 _Z20gprof_pthread_createPmP14pthread_attr_tPFPvS2_ES2_@Base 0.9
 _ZN5stxxl10disk_queue11add_readreqERNS_11request_ptrE@Base 0.9
 _ZN5stxxl10disk_queue12add_writereqERNS_11request_ptrE@Base 0.9
 _ZN5stxxl10disk_queue6workerEPv@Base 0.9
 _ZN5stxxl10disk_queueC1Ei@Base 0.9
 _ZN5stxxl10disk_queueC2Ei@Base 0.9
 _ZN5stxxl10disk_queueD1Ev@Base 0.9
 _ZN5stxxl10disk_queueD2Ev@Base 0.9
 _ZN5stxxl10ran32StateE@Base 0.9
 _ZN5stxxl11FileCreator6createERKSsS2_ii@Base 0.9
 _ZN5stxxl11FileCreatorD0Ev@Base 1.0
 _ZN5stxxl11FileCreatorD1Ev@Base 1.0
 _ZN5stxxl11disk_queues8instanceE@Base 0.9
#MISSING: 1.0# _ZN5stxxl11request_ptr7sub_refEv@Base 0.9
#MISSING: 1.0# _ZN5stxxl11request_ptraSERKS0_@Base 0.9
 _ZN5stxxl12DiskGeometry8add_zoneERiiiS1_@Base 0.9
 _ZN5stxxl12DiskGeometry9get_delayExm@Base 0.9
 _ZN5stxxl12mmap_request5serveEv@Base 0.9
 _ZN5stxxl12mmap_request7io_typeEv@Base 0.9
 _ZN5stxxl12mmap_requestD0Ev@Base 0.9
 _ZN5stxxl12mmap_requestD1Ev@Base 0.9
 _ZN5stxxl12onoff_switch2onEv@Base 0.9
 _ZN5stxxl12syscall_file5areadEPvxmNS_18completion_handlerE@Base 0.9
 _ZN5stxxl12syscall_file6awriteEPvxmNS_18completion_handlerE@Base 0.9
 _ZN5stxxl12syscall_fileC1ERKSsii@Base 0.9
 _ZN5stxxl12syscall_fileC2ERKSsii@Base 0.9
 _ZN5stxxl12syscall_fileD0Ev@Base 0.9
 _ZN5stxxl12syscall_fileD1Ev@Base 0.9
 _ZN5stxxl13DiskAllocator4dumpEv@Base 0.9
 _ZN5stxxl13block_manager12get_instanceEv@Base 0.9
 _ZN5stxxl13block_manager8instanceE@Base 0.9
 _ZN5stxxl13block_managerC1Ev@Base 0.9
 _ZN5stxxl13block_managerC2Ev@Base 0.9
 _ZN5stxxl13block_managerD1Ev@Base 0.9
 _ZN5stxxl13block_managerD2Ev@Base 0.9
 _ZN5stxxl13sim_disk_file5areadEPvxmNS_18completion_handlerE@Base 0.9
 _ZN5stxxl13sim_disk_file6awriteEPvxmNS_18completion_handlerE@Base 0.9
 _ZN5stxxl13sim_disk_file8set_sizeEx@Base 0.9
 _ZN5stxxl13sim_disk_fileD0Ev@Base 0.9
 _ZN5stxxl13sim_disk_fileD1Ev@Base 0.9
 _ZN5stxxl13ufs_file_base4lockEv@Base 1.0
 _ZN5stxxl13ufs_file_base4sizeEv@Base 0.9
 _ZN5stxxl13ufs_file_base8set_sizeEx@Base 0.9
 _ZN5stxxl13ufs_file_baseC1ERKSsii@Base 0.9
 _ZN5stxxl13ufs_file_baseC2ERKSsii@Base 0.9
 _ZN5stxxl13ufs_file_baseD0Ev@Base 0.9
 _ZN5stxxl13ufs_file_baseD1Ev@Base 0.9
 _ZN5stxxl13ufs_file_baseD2Ev@Base 0.9
 _ZN5stxxl14IC35L080AVVA07C1Ev@Base 0.9
 _ZN5stxxl14IC35L080AVVA07C2Ev@Base 0.9
 _ZN5stxxl14resource_errorD0Ev@Base 1.0
 _ZN5stxxl14resource_errorD1Ev@Base 1.0
 _ZN5stxxl15syscall_request5serveEv@Base 0.9
 _ZN5stxxl15syscall_request7io_typeEv@Base 0.9
 _ZN5stxxl15syscall_requestC1EPNS_12syscall_fileEPvxmNS_7request12request_typeENS_18completion_handlerE@Base 0.9
 _ZN5stxxl15syscall_requestC2EPNS_12syscall_fileEPvxmNS_7request12request_typeENS_18completion_handlerE@Base 0.9
 _ZN5stxxl15syscall_requestD0Ev@Base 0.9
 _ZN5stxxl15syscall_requestD1Ev@Base 0.9
 _ZN5stxxl16sim_disk_request5serveEv@Base 0.9
 _ZN5stxxl16sim_disk_request7io_typeEv@Base 0.9
 _ZN5stxxl16sim_disk_requestD0Ev@Base 0.9
 _ZN5stxxl16sim_disk_requestD1Ev@Base 0.9
 _ZN5stxxl16ufs_request_base10add_waiterEPNS_12onoff_switchE@Base 0.9
 _ZN5stxxl16ufs_request_base13delete_waiterEPNS_12onoff_switchE@Base 0.9
 _ZN5stxxl16ufs_request_base14check_aligningEv@Base 0.9
 _ZN5stxxl16ufs_request_base4pollEv@Base 0.9
 _ZN5stxxl16ufs_request_base4waitEv@Base 0.9
 _ZN5stxxl16ufs_request_base7io_typeEv@Base 0.9
 _ZN5stxxl16ufs_request_base8nwaitersEv@Base 0.9
 _ZN5stxxl16ufs_request_baseC1EPNS_13ufs_file_baseEPvxmNS_7request12request_typeENS_18completion_handlerE@Base 0.9
 _ZN5stxxl16ufs_request_baseC2EPNS_13ufs_file_baseEPvxmNS_7request12request_typeENS_18completion_handlerE@Base 0.9
 _ZN5stxxl16ufs_request_baseD0Ev@Base 0.9
 _ZN5stxxl16ufs_request_baseD1Ev@Base 0.9
 _ZN5stxxl16ufs_request_baseD2Ev@Base 0.9
 _ZN5stxxl17wait_time_counterE@Base 0.9
 _ZN5stxxl20simulate_async_writeEPiiiiPSt4pairIiiE@Base 0.9
 _ZN5stxxl25compute_prefetch_scheduleEPiS0_S0_ii@Base 0.9
 _ZN5stxxl4file4lockEv@Base 1.0
 _ZN5stxxl4fileD0Ev@Base 0.9
 _ZN5stxxl4fileD1Ev@Base 0.9
 _ZN5stxxl5mutex4lockEv@Base 0.9
 _ZN5stxxl5mutex6unlockEv@Base 0.9
 _ZN5stxxl5mutexC1Ev@Base 1.0
 _ZN5stxxl5mutexD1Ev@Base 0.9
 _ZN5stxxl5splitERKSsS1_@Base 0.9
 _ZN5stxxl5state6set_toEi@Base 0.9
 _ZN5stxxl5state8wait_forEi@Base 0.9
 _ZN5stxxl5stateC1Ei@Base 1.0
 _ZN5stxxl5stateD1Ev@Base 1.0
 _ZN5stxxl5stateclEv@Base 0.9
 _ZN5stxxl5stats12get_instanceEv@Base 0.9
 _ZN5stxxl5stats12read_startedEj@Base 0.9
 _ZN5stxxl5stats13read_finishedEv@Base 0.9
 _ZN5stxxl5stats13write_startedEj@Base 0.9
 _ZN5stxxl5stats14write_finishedEv@Base 0.9
 _ZN5stxxl5stats19_reset_io_wait_timeEv@Base 0.9
 _ZN5stxxl5stats22increment_io_wait_timeEd@Base 0.9
 _ZN5stxxl5stats5resetEv@Base 0.9
 _ZN5stxxl5stats8instanceE@Base 0.9
 _ZN5stxxl5statsC1Ev@Base 0.9
 _ZN5stxxl5statsC2Ev@Base 0.9
 _ZN5stxxl6config12get_instanceEv@Base 0.9
 _ZN5stxxl6config8instanceE@Base 0.9
 _ZN5stxxl6configC1EPKc@Base 0.9
 _ZN5stxxl6configC2EPKc@Base 0.9
 _ZN5stxxl6logger12get_instanceEv@Base 0.9
 _ZN5stxxl6logger8instanceE@Base 0.9
 _ZN5stxxl7request7io_typeEv@Base 0.9
 _ZN5stxxl7request7sub_refEv@Base 0.9
 _ZN5stxxl7requestD0Ev@Base 0.9
 _ZN5stxxl7requestD1Ev@Base 0.9
 _ZN5stxxl8debugmon10io_startedEPc@Base 0.9
 _ZN5stxxl8debugmon11io_finishedEPc@Base 0.9
 _ZN5stxxl8debugmon12get_instanceEv@Base 0.9
 _ZN5stxxl8debugmon15block_allocatedEPcS1_m@Base 0.9
 _ZN5stxxl8debugmon17block_deallocatedEPc@Base 0.9
 _ZN5stxxl8debugmon8instanceE@Base 0.9
 _ZN5stxxl8io_errorD0Ev@Base 1.0
 _ZN5stxxl8io_errorD1Ev@Base 1.0
 _ZN5stxxl9mmap_file5areadEPvxmNS_18completion_handlerE@Base 0.9
 _ZN5stxxl9mmap_file6awriteEPvxmNS_18completion_handlerE@Base 0.9
 _ZN5stxxl9mmap_fileD0Ev@Base 0.9
 _ZN5stxxl9mmap_fileD1Ev@Base 0.9
 _ZN5stxxl9semaphoreC1Ei@Base 1.0
 _ZN5stxxl9semaphoreD1Ev@Base 0.9
 _ZN5stxxl9semaphoremmEi@Base 0.9
 _ZN5stxxl9semaphoreppEi@Base 0.9
 _ZN5stxxllsERSoRKNS_5statsE@Base 0.9
 _ZNK5stxxl11request_ptrptEv@Base 0.9
 _ZNK5stxxl13ufs_file_base12get_file_desEv@Base 0.9
#MISSING: 1.0# _ZNK5stxxl16ufs_request_base4sizeEv@Base 0.9
 _ZNK5stxxl5stats10get_writesEv@Base 0.9
 _ZNK5stxxl5stats12get_pio_timeEv@Base 0.9
 _ZNK5stxxl5stats13get_read_timeEv@Base 0.9
 _ZNK5stxxl5stats14get_pread_timeEv@Base 0.9
 _ZNK5stxxl5stats14get_write_timeEv@Base 0.9
 _ZNK5stxxl5stats15get_pwrite_timeEv@Base 0.9
 _ZNK5stxxl5stats15get_read_volumeEv@Base 0.9
 _ZNK5stxxl5stats16get_io_wait_timeEv@Base 0.9
 _ZNK5stxxl5stats18get_written_volumeEv@Base 0.9
 _ZNK5stxxl5stats19get_last_reset_timeEv@Base 0.9
 _ZNK5stxxl5stats9get_readsEv@Base 0.9
 _ZNK5stxxl7request5printERSo@Base 0.9
 _ZNSs12_S_constructIPcEES0_T_S1_RKSaIcESt20forward_iterator_tag@Base 1.0
 _ZNSt11_Deque_baseIN5stxxl11request_ptrESaIS1_EE15_M_create_nodesEPPS1_S5_@Base 0.9
 _ZNSt11_Deque_baseIN5stxxl11request_ptrESaIS1_EE17_M_initialize_mapEm@Base 0.9
 _ZNSt11_Deque_baseIiSaIiEE15_M_create_nodesEPPiS3_@Base 0.9
 _ZNSt11_Deque_baseIiSaIiEE17_M_initialize_mapEm@Base 0.9
 _ZNSt17_Temporary_bufferIPSt4pairIiiES1_EC1ES2_S2_@Base 0.9
 _ZNSt5dequeIN5stxxl11request_ptrESaIS1_EE16_M_push_back_auxERKS1_@Base 0.9
 _ZNSt5dequeIN5stxxl11request_ptrESaIS1_EE17_M_reallocate_mapEmb@Base 0.9
 _ZNSt5dequeIN5stxxl11request_ptrESaIS1_EE19_M_destroy_data_auxESt15_Deque_iteratorIS1_RS1_PS1_ES7_@Base 0.9
 _ZNSt5dequeIN5stxxl11request_ptrESaIS1_EED1Ev@Base 0.9
 _ZNSt5dequeIiSaIiEE16_M_push_back_auxERKi@Base 0.9
 _ZNSt5dequeIiSaIiEE17_M_reallocate_mapEmb@Base 0.9
 _ZNSt5dequeIiSaIiEED1Ev@Base 0.9
 _ZNSt6vectorIN5stxxl6config9DiskEntryESaIS2_EE13_M_insert_auxEN9__gnu_cxx17__normal_iteratorIPS2_S4_EERKS2_@Base 0.9
 _ZNSt6vectorIN5stxxl9sim_eventESaIS1_EE13_M_insert_auxEN9__gnu_cxx17__normal_iteratorIPS1_S3_EERKS1_@Base 0.9
 _ZNSt6vectorIN5stxxl9sim_eventESaIS1_EED1Ev@Base 0.9
 _ZNSt6vectorIPN9__gnu_cxx15_Hashtable_nodeISt4pairIKPcN5stxxl8debugmon3tagEEEESaISA_EE14_M_fill_insertENS0_17__normal_iteratorIPSA_SC_EEmRKSA_@Base 0.9
 _ZNSt6vectorIPN9__gnu_cxx15_Hashtable_nodeISt4pairIKPcN5stxxl8debugmon3tagEEEESaISA_EE7reserveEm@Base 0.9
 _ZNSt6vectorISsSaISsEE13_M_insert_auxEN9__gnu_cxx17__normal_iteratorIPSsS1_EERKSs@Base 0.9
 _ZNSt6vectorISsSaISsEEaSERKS1_@Base 0.9
 _ZNSt8_Rb_treeIN5stxxl12DiskGeometry4ZoneES2_St9_IdentityIS2_ENS1_7ZoneCmpESaIS2_EE16_M_insert_uniqueERKS2_@Base 0.9
 _ZNSt8_Rb_treeIN5stxxl12DiskGeometry4ZoneES2_St9_IdentityIS2_ENS1_7ZoneCmpESaIS2_EE8_M_eraseEPSt13_Rb_tree_nodeIS2_E@Base 0.9
 _ZNSt8_Rb_treeIN5stxxl12DiskGeometry4ZoneES2_St9_IdentityIS2_ENS1_7ZoneCmpESaIS2_EE9_M_insertEPSt18_Rb_tree_node_baseS9_RKS2_@Base 0.9
 _ZNSt8_Rb_treeIPN5stxxl12onoff_switchES2_St9_IdentityIS2_ESt4lessIS2_ESaIS2_EE16_M_insert_uniqueERKS2_@Base 0.9
 _ZNSt8_Rb_treeIPN5stxxl12onoff_switchES2_St9_IdentityIS2_ESt4lessIS2_ESaIS2_EE5eraseERKS2_@Base 0.9
 _ZNSt8_Rb_treeIPN5stxxl12onoff_switchES2_St9_IdentityIS2_ESt4lessIS2_ESaIS2_EE8_M_eraseEPSt13_Rb_tree_nodeIS2_E@Base 0.9
 _ZNSt8_Rb_treeIPN5stxxl12onoff_switchES2_St9_IdentityIS2_ESt4lessIS2_ESaIS2_EE9_M_insertEPSt18_Rb_tree_node_baseSA_RKS2_@Base 0.9
 _ZNSt8_Rb_treeIxSt4pairIKxPN5stxxl10disk_queueEESt10_Select1stIS5_ESt4lessIxESaIS5_EE16_M_insert_uniqueERKS5_@Base 0.9
 _ZNSt8_Rb_treeIxSt4pairIKxPN5stxxl10disk_queueEESt10_Select1stIS5_ESt4lessIxESaIS5_EE16_M_insert_uniqueESt17_Rb_tree_iteratorIS5_ERKS5_@Base 0.9
 _ZNSt8_Rb_treeIxSt4pairIKxPN5stxxl10disk_queueEESt10_Select1stIS5_ESt4lessIxESaIS5_EE9_M_insertEPSt18_Rb_tree_node_baseSD_RKS5_@Base 0.9
 _ZNSt8_Rb_treeIxSt4pairIKxxESt10_Select1stIS2_ESt4lessIxESaIS2_EE16_M_insert_uniqueERKS2_@Base 0.9
 _ZNSt8_Rb_treeIxSt4pairIKxxESt10_Select1stIS2_ESt4lessIxESaIS2_EE16_M_insert_uniqueESt17_Rb_tree_iteratorIS2_ERKS2_@Base 0.9
 _ZNSt8_Rb_treeIxSt4pairIKxxESt10_Select1stIS2_ESt4lessIxESaIS2_EE8_M_eraseEPSt13_Rb_tree_nodeIS2_E@Base 0.9
 _ZNSt8_Rb_treeIxSt4pairIKxxESt10_Select1stIS2_ESt4lessIxESaIS2_EE9_M_insertEPSt18_Rb_tree_node_baseSA_RKS2_@Base 0.9
 _ZSt13__adjust_heapIN9__gnu_cxx17__normal_iteratorIPN5stxxl9sim_eventESt6vectorIS3_SaIS3_EEEElS3_NS2_13sim_event_cmpEEvT_T0_SB_T1_T2_@Base 0.9
 _ZSt16__merge_adaptiveIPSt4pairIiiElS2_N5stxxl14write_time_cmpEEvT_S5_S5_T0_S6_T1_S6_T2_@Base 0.9
 _ZSt16__merge_backwardIPSt4pairIiiES2_S2_N5stxxl14write_time_cmpEET1_T_S6_T0_S7_S5_T2_@Base 0.9
 _ZSt17__merge_sort_loopIPSt4pairIiiES2_lN5stxxl14write_time_cmpEEvT_S5_T0_T1_T2_@Base 0.9
 _ZSt17__rotate_adaptiveIPSt4pairIiiES2_lET_S3_S3_S3_T1_S4_T0_S4_@Base 0.9
 _ZSt21__inplace_stable_sortIPSt4pairIiiEN5stxxl14write_time_cmpEEvT_S5_T0_@Base 0.9
 _ZSt22__merge_without_bufferIPSt4pairIiiElN5stxxl14write_time_cmpEEvT_S5_S5_T0_S6_T1_@Base 0.9
 _ZSt22__stable_sort_adaptiveIPSt4pairIiiES2_lN5stxxl14write_time_cmpEEvT_S5_T0_T1_T2_@Base 0.9
 _ZSt24__merge_sort_with_bufferIPSt4pairIiiES2_N5stxxl14write_time_cmpEEvT_S5_T0_T1_@Base 0.9
 _ZSt3decRSt8ios_base@Base 0.9
 _ZSt3hexRSt8ios_base@Base 0.9
 _ZSt8__rotateIPSt4pairIiiEEvT_S3_S3_St26random_access_iterator_tag@Base 0.9
 _ZTIN5stxxl11FileCreatorE@Base 0.9
 _ZTIN5stxxl12DiskGeometryE@Base 0.9
 _ZTIN5stxxl12mmap_requestE@Base 0.9
 _ZTIN5stxxl12syscall_fileE@Base 0.9
 _ZTIN5stxxl13sim_disk_fileE@Base 0.9
 _ZTIN5stxxl13ufs_file_baseE@Base 0.9
 _ZTIN5stxxl14IC35L080AVVA07E@Base 0.9
 _ZTIN5stxxl14resource_errorE@Base 1.0
 _ZTIN5stxxl15syscall_requestE@Base 0.9
 _ZTIN5stxxl16sim_disk_requestE@Base 0.9
 _ZTIN5stxxl16ufs_request_baseE@Base 0.9
 _ZTIN5stxxl4fileE@Base 0.9
 _ZTIN5stxxl7requestE@Base 0.9
 _ZTIN5stxxl8io_errorE@Base 1.0
 _ZTIN5stxxl9mmap_fileE@Base 0.9
 _ZTSN5stxxl11FileCreatorE@Base 0.9
 _ZTSN5stxxl12DiskGeometryE@Base 0.9
 _ZTSN5stxxl12mmap_requestE@Base 0.9
 _ZTSN5stxxl12syscall_fileE@Base 0.9
 _ZTSN5stxxl13sim_disk_fileE@Base 0.9
 _ZTSN5stxxl13ufs_file_baseE@Base 0.9
 _ZTSN5stxxl14IC35L080AVVA07E@Base 0.9
 _ZTSN5stxxl14resource_errorE@Base 1.0
 _ZTSN5stxxl15syscall_requestE@Base 0.9
 _ZTSN5stxxl16sim_disk_requestE@Base 0.9
 _ZTSN5stxxl16ufs_request_baseE@Base 0.9
 _ZTSN5stxxl4fileE@Base 0.9
 _ZTSN5stxxl7requestE@Base 0.9
 _ZTSN5stxxl8io_errorE@Base 1.0
 _ZTSN5stxxl9mmap_fileE@Base 0.9
 _ZTVN5stxxl11FileCreatorE@Base 0.9
 _ZTVN5stxxl12mmap_requestE@Base 0.9
 _ZTVN5stxxl12syscall_fileE@Base 0.9
 _ZTVN5stxxl13sim_disk_fileE@Base 0.9
 _ZTVN5stxxl13ufs_file_baseE@Base 0.9
 _ZTVN5stxxl14resource_errorE@Base 1.0
 _ZTVN5stxxl15syscall_requestE@Base 0.9
 _ZTVN5stxxl16sim_disk_requestE@Base 0.9
 _ZTVN5stxxl16ufs_request_baseE@Base 0.9
 _ZTVN5stxxl4fileE@Base 0.9
 _ZTVN5stxxl7requestE@Base 0.9
 _ZTVN5stxxl8io_errorE@Base 1.0
 _ZTVN5stxxl9mmap_fileE@Base 0.9
